; Function Attrs: nounwind uwtable
define internal void @Abc_Print(i32 %0, ptr readnone captures(none) %1, ...) unnamed_addr #0 {
  %3 = alloca [1 x %struct.__va_list_tag], align 16
  %4 = load i32, ptr @enable_dbg_outs, align 4
  %.not = icmp eq i32 %4, 0
  br i1 %.not, label %23, label %5

5:                                                ; preds = %2
  %6 = tail call i32 (...) @Abc_FrameIsBridgeMode() #24
  %.not8 = icmp eq i32 %6, 0
  br i1 %.not8, label %7, label %9

7:                                                ; preds = %5
  %8 = tail call i32 (ptr, ...) @printf(ptr noundef nonnull dereferenceable(1) @.str.93)
  br label %12

9:                                                ; preds = %5
  %10 = load ptr, ptr @stdout, align 8
  %11 = tail call i32 @Gia_ManToBridgeText(ptr noundef %10, i32 noundef 9, ptr noundef nonnull @.str.93) #24
  br label %12

12:                                               ; preds = %9, %7
  call void @llvm.va_start.p0(ptr nonnull %3)
  %13 = call i32 (...) @Abc_FrameIsBridgeMode() #24
  %.not9 = icmp eq i32 %13, 0
  br i1 %.not9, label %20, label %14

14:                                               ; preds = %12
  %15 = call ptr @vnsprintf(ptr noundef nonnull @.str.9, ptr noundef nonnull %3) #24
  %16 = load ptr, ptr @stdout, align 8
  %17 = call i64 @strlen(ptr noundef nonnull dereferenceable(1) %15) #26
  %18 = trunc i64 %17 to i32
  %19 = call i32 @Gia_ManToBridgeText(ptr noundef %16, i32 noundef %18, ptr noundef nonnull %15) #24
  call void @free(ptr noundef %15) #24
  br label %22

20:                                               ; preds = %12
  %21 = call i32 @vprintf(ptr noundef nonnull @.str.9, ptr noundef nonnull %3) #24
  br label %22

22:                                               ; preds = %20, %14
  call void @llvm.va_end.p0(ptr nonnull %3)
  br label %23

23:                                               ; preds = %2, %22
  ret void
}